; Function Attrs: mustprogress uwtable
define dso_local void @_ZN3net14QuicSpdyStream17WriteOrBufferBodyERKNSt7__cxx1112basic_stringIcSt11char_traitsIcESaIcEEEbPNS_24QuicAckListenerInterfaceE(ptr noundef nonnull align 8 dereferenceable(664) %this, ptr noundef nonnull align 8 dereferenceable(32) %data, i1 noundef zeroext %fin, ptr noundef %ack_notifier_delegate) local_unnamed_addr #0 align 2 {
entry:
  %agg.tmp = alloca %"class.base::BasicStringPiece", align 8
  call void @_ZN4base16BasicStringPieceINSt7__cxx1112basic_stringIcSt11char_traitsIcESaIcEEEEC1ERKS6_(ptr noundef nonnull align 8 dereferenceable(16) %agg.tmp, ptr noundef nonnull align 8 dereferenceable(32) %data)
  %0 = load ptr, ptr %agg.tmp, align 8
  %1 = getelementptr inbounds i8, ptr %agg.tmp, i64 8
  %2 = load i64, ptr %1, align 8
  call void @_ZN3net18ReliableQuicStream17WriteOrBufferDataEN4base16BasicStringPieceINSt7__cxx1112basic_stringIcSt11char_traitsIcESaIcEEEEEbPNS_24QuicAckListenerInterfaceE(ptr noundef nonnull align 8 dereferenceable(377) %this, ptr %0, i64 %2, i1 noundef zeroext %fin, ptr noundef %ack_notifier_delegate)
  ret void
}